target datalayout = "e-m:e-p270:32:32-p271:32:32-p272:64:64-i64:64-i128:128-f80:128-n8:16:32:64-S128"
target triple = "x86_64-pc-linux-gnu"

%struct.dt_pthread_mutex_t = type { %union.pthread_mutex_t }
%union.pthread_mutex_t = type { %struct.__pthread_mutex_s }
%struct.__pthread_mutex_s = type { i32, i32, i32, i32, i32, i16, i16, %struct.__pthread_internal_list }
%struct.__pthread_internal_list = type { ptr, ptr }
%struct._dt_progress_t = type { double, ptr, i32, %struct.dt_pthread_mutex_t, ptr, ptr, ptr }

; Function Attrs: inlinehint nounwind uwtable
define internal i32 @dt_pthread_mutex_unlock(ptr noundef %0) #4 {
  %2 = alloca ptr, align 8
  store ptr %0, ptr %2, align 8, !tbaa !87
  %3 = load ptr, ptr %2, align 8, !tbaa !87
  %4 = getelementptr inbounds nuw %struct.dt_pthread_mutex_t, ptr %3, i32 0, i32 0
  %5 = call i32 @pthread_mutex_unlock(ptr noundef %4) #6
  ret i32 %5
}

; Function Attrs: inlinehint nounwind uwtable
define internal i32 @dt_pthread_mutex_lock(ptr noundef %0) #4 {
  %2 = alloca ptr, align 8
  store ptr %0, ptr %2, align 8, !tbaa !87
  %3 = load ptr, ptr %2, align 8, !tbaa !87
  %4 = getelementptr inbounds nuw %struct.dt_pthread_mutex_t, ptr %3, i32 0, i32 0
  %5 = call i32 @pthread_mutex_lock(ptr noundef %4) #6
  ret i32 %5
}

; Function Attrs: nounwind uwtable
define void @dt_control_progress_cancel(ptr noundef %0, ptr noundef %1) #0 {
  %3 = alloca ptr, align 8
  %4 = alloca ptr, align 8
  store ptr %0, ptr %3, align 8, !tbaa !6
  store ptr %1, ptr %4, align 8, !tbaa !62
  %5 = load ptr, ptr %4, align 8, !tbaa !62
  %6 = getelementptr inbounds nuw %struct._dt_progress_t, ptr %5, i32 0, i32 3
  %7 = call i32 @dt_pthread_mutex_lock(ptr noundef %6)
  %8 = load ptr, ptr %4, align 8, !tbaa !62
  %9 = getelementptr inbounds nuw %struct._dt_progress_t, ptr %8, i32 0, i32 5
  %10 = load ptr, ptr %9, align 8, !tbaa !98
  %11 = icmp eq ptr %10, null
  br i1 %11, label %12, label %16

12:                                               ; preds = %2
  %13 = load ptr, ptr %4, align 8, !tbaa !62
  %14 = getelementptr inbounds nuw %struct._dt_progress_t, ptr %13, i32 0, i32 3
  %15 = call i32 @dt_pthread_mutex_unlock(ptr noundef %14)
  br label %27

16:                                               ; preds = %2
  %17 = load ptr, ptr %4, align 8, !tbaa !62
  %18 = getelementptr inbounds nuw %struct._dt_progress_t, ptr %17, i32 0, i32 5
  %19 = load ptr, ptr %18, align 8, !tbaa !98
  %20 = load ptr, ptr %4, align 8, !tbaa !62
  %21 = load ptr, ptr %4, align 8, !tbaa !62
  %22 = getelementptr inbounds nuw %struct._dt_progress_t, ptr %21, i32 0, i32 6
  %23 = load ptr, ptr %22, align 8, !tbaa !99
  call void %19(ptr noundef %20, ptr noundef %23)
  %24 = load ptr, ptr %4, align 8, !tbaa !62
  %25 = getelementptr inbounds nuw %struct._dt_progress_t, ptr %24, i32 0, i32 3
  %26 = call i32 @dt_pthread_mutex_unlock(ptr noundef %25)
  br label %27

27:                                               ; preds = %16, %12
  ret void
}