; Function Attrs: nounwind uwtable
define void @dt_control_progress_cancel(ptr noundef readnone captures(none) %0, ptr noundef %1) local_unnamed_addr #0 {
  %3 = getelementptr inbounds nuw i8, ptr %1, i64 24
  %4 = tail call i32 @pthread_mutex_lock(ptr noundef nonnull %3) #6
  %5 = getelementptr inbounds nuw i8, ptr %1, i64 72
  %6 = load ptr, ptr %5, align 8, !tbaa !86
  %7 = icmp eq ptr %6, null
  br i1 %7, label %11, label %8

8:                                                ; preds = %2
  %9 = getelementptr inbounds nuw i8, ptr %1, i64 80
  %10 = load ptr, ptr %9, align 8, !tbaa !87
  tail call void %6(ptr noundef nonnull %1, ptr noundef %10) #6
  br label %11

11:                                               ; preds = %2, %8
  %12 = tail call i32 @pthread_mutex_unlock(ptr noundef nonnull %3) #6
  ret void
}